; Function Attrs: mustprogress uwtable
define void @_ZN7rocksdb17BaseDeltaIterator7AdvanceEv(ptr noundef nonnull align 8 dereferenceable(200) initializes((48, 54), (160, 176)) %0) local_unnamed_addr #4 align 2 {
  %2 = getelementptr inbounds nuw i8, ptr %0, i64 42
  %3 = load i8, ptr %2, align 2, !tbaa !77, !range !91, !noundef !92
  %4 = trunc nuw i8 %3 to i1
  br i1 %4, label %5, label %20

5:                                                ; preds = %1
  %6 = getelementptr inbounds nuw i8, ptr %0, i64 40
  %7 = load i8, ptr %6, align 8, !tbaa !20, !range !91, !noundef !92
  %8 = trunc nuw i8 %7 to i1
  %9 = getelementptr inbounds nuw i8, ptr %0, i64 72
  %10 = load ptr, ptr %9, align 8, !tbaa !99
  %11 = load ptr, ptr %10, align 8, !tbaa !18
  %..i = select i1 %8, i64 56, i64 64
  %12 = getelementptr inbounds nuw i8, ptr %11, i64 %..i
  %13 = load ptr, ptr %12, align 8
  tail call void %13(ptr noundef nonnull align 8 dereferenceable(40) %10)
  %14 = load i8, ptr %6, align 8, !tbaa !20, !range !91, !noundef !92
  %15 = trunc nuw i8 %14 to i1
  %16 = getelementptr inbounds nuw i8, ptr %0, i64 80
  %17 = load ptr, ptr %16, align 8, !tbaa !100
  br i1 %15, label %18, label %19

18:                                               ; preds = %5
  tail call void @_ZN7rocksdb16WBWIIteratorImpl10AdvanceKeyEb(ptr noundef nonnull align 8 dereferenceable(72) %17, i1 noundef zeroext true)
  br label %_ZN7rocksdb17BaseDeltaIterator12AdvanceDeltaEv.exit

19:                                               ; preds = %5
  tail call void @_ZN7rocksdb16WBWIIteratorImpl7PrevKeyEv(ptr noundef nonnull align 8 dereferenceable(72) %17)
  br label %_ZN7rocksdb17BaseDeltaIterator12AdvanceDeltaEv.exit

20:                                               ; preds = %1
  %21 = getelementptr inbounds nuw i8, ptr %0, i64 41
  %22 = load i8, ptr %21, align 1, !tbaa !76, !range !91, !noundef !92
  %23 = trunc nuw i8 %22 to i1
  %24 = getelementptr inbounds nuw i8, ptr %0, i64 40
  %25 = load i8, ptr %24, align 8, !tbaa !20, !range !91, !noundef !92
  %26 = trunc nuw i8 %25 to i1
  br i1 %23, label %27, label %33

27:                                               ; preds = %20
  %28 = getelementptr inbounds nuw i8, ptr %0, i64 72
  %29 = load ptr, ptr %28, align 8, !tbaa !99
  %30 = load ptr, ptr %29, align 8, !tbaa !18
  %..i1 = select i1 %26, i64 56, i64 64
  %31 = getelementptr inbounds nuw i8, ptr %30, i64 %..i1
  %32 = load ptr, ptr %31, align 8
  tail call void %32(ptr noundef nonnull align 8 dereferenceable(40) %29)
  br label %_ZN7rocksdb17BaseDeltaIterator12AdvanceDeltaEv.exit

33:                                               ; preds = %20
  %34 = getelementptr inbounds nuw i8, ptr %0, i64 80
  %35 = load ptr, ptr %34, align 8, !tbaa !100
  br i1 %26, label %36, label %37

36:                                               ; preds = %33
  tail call void @_ZN7rocksdb16WBWIIteratorImpl10AdvanceKeyEb(ptr noundef nonnull align 8 dereferenceable(72) %35, i1 noundef zeroext true)
  br label %_ZN7rocksdb17BaseDeltaIterator12AdvanceDeltaEv.exit

37:                                               ; preds = %33
  tail call void @_ZN7rocksdb16WBWIIteratorImpl7PrevKeyEv(ptr noundef nonnull align 8 dereferenceable(72) %35)
  br label %_ZN7rocksdb17BaseDeltaIterator12AdvanceDeltaEv.exit

_ZN7rocksdb17BaseDeltaIterator12AdvanceDeltaEv.exit: ; preds = %37, %36, %19, %18, %27
  tail call void @_ZN7rocksdb17BaseDeltaIterator13UpdateCurrentEv(ptr noundef nonnull align 8 dereferenceable(200) %0)
  ret void
}